; ModuleID = '894.c'
source_filename = "894.c"
target datalayout = "e-m:e-p270:32:32-p271:32:32-p272:64:64-i64:64-f80:128-n8:16:32:64-S128"
target triple = "x86_64-pc-linux-gnu"

%struct.student = type { [100 x i8], %struct.student* }

; Function Attrs: noinline nounwind uwtable
define dso_local i32 @main() #0 {
  %1 = alloca i32, align 4
  %2 = alloca i32, align 4
  %3 = alloca i32, align 4
  %4 = alloca %struct.student*, align 8
  %5 = alloca %struct.student*, align 8
  %6 = alloca %struct.student*, align 8
  %7 = alloca %struct.student*, align 8
  store i32 0, i32* %1, align 4
  store i32 0, i32* %3, align 4
  %8 = call noalias i8* @malloc(i64 100) #3
  %9 = bitcast i8* %8 to %struct.student*
  store %struct.student* %9, %struct.student** %7, align 8
  store %struct.student* %9, %struct.student** %6, align 8
  store %struct.student* null, %struct.student** %5, align 8
  store i32 0, i32* %2, align 4
  store i32 0, i32* %2, align 4
  br label %10

10:                                               ; preds = %40, %0
  %11 = load %struct.student*, %struct.student** %6, align 8
  %12 = getelementptr inbounds %struct.student, %struct.student* %11, i32 0, i32 0
  %13 = getelementptr inbounds [100 x i8], [100 x i8]* %12, i64 0, i64 0
  %14 = call i32 (i8*, ...) bitcast (i32 (...)* @gets to i32 (i8*, ...)*)(i8* %13)
  %15 = load i32, i32* %3, align 4
  %16 = add nsw i32 %15, 1
  store i32 %16, i32* %3, align 4
  %17 = load %struct.student*, %struct.student** %6, align 8
  %18 = getelementptr inbounds %struct.student, %struct.student* %17, i32 0, i32 0
  %19 = getelementptr inbounds [100 x i8], [100 x i8]* %18, i64 0, i64 0
  %20 = load i8, i8* %19, align 8
  %21 = sext i8 %20 to i32
  %22 = icmp ne i32 %21, 101
  br i1 %22, label %23, label %37

23:                                               ; preds = %10
  %24 = load i32, i32* %3, align 4
  %25 = icmp eq i32 %24, 1
  br i1 %25, label %26, label %29

26:                                               ; preds = %23
  %27 = load %struct.student*, %struct.student** %6, align 8
  %28 = getelementptr inbounds %struct.student, %struct.student* %27, i32 0, i32 1
  store %struct.student* null, %struct.student** %28, align 8
  br label %33

29:                                               ; preds = %23
  %30 = load %struct.student*, %struct.student** %7, align 8
  %31 = load %struct.student*, %struct.student** %6, align 8
  %32 = getelementptr inbounds %struct.student, %struct.student* %31, i32 0, i32 1
  store %struct.student* %30, %struct.student** %32, align 8
  br label %33

33:                                               ; preds = %29, %26
  %34 = load %struct.student*, %struct.student** %6, align 8
  store %struct.student* %34, %struct.student** %7, align 8
  %35 = call noalias i8* @malloc(i64 100) #3
  %36 = bitcast i8* %35 to %struct.student*
  store %struct.student* %36, %struct.student** %6, align 8
  br label %39

37:                                               ; preds = %10
  %38 = load %struct.student*, %struct.student** %7, align 8
  store %struct.student* %38, %struct.student** %5, align 8
  br label %43

39:                                               ; preds = %33
  br label %40

40:                                               ; preds = %39
  %41 = load i32, i32* %2, align 4
  %42 = add nsw i32 %41, 1
  store i32 %42, i32* %2, align 4
  br label %10

43:                                               ; preds = %37
  %44 = load %struct.student*, %struct.student** %5, align 8
  store %struct.student* %44, %struct.student** %4, align 8
  br label %45

45:                                               ; preds = %48, %43
  %46 = load %struct.student*, %struct.student** %4, align 8
  %47 = icmp ne %struct.student* %46, null
  br i1 %47, label %48, label %56

48:                                               ; preds = %45
  %49 = load %struct.student*, %struct.student** %4, align 8
  %50 = getelementptr inbounds %struct.student, %struct.student* %49, i32 0, i32 0
  %51 = getelementptr inbounds [100 x i8], [100 x i8]* %50, i64 0, i64 0
  %52 = call i32 @puts(i8* %51)
  %53 = load %struct.student*, %struct.student** %4, align 8
  %54 = getelementptr inbounds %struct.student, %struct.student* %53, i32 0, i32 1
  %55 = load %struct.student*, %struct.student** %54, align 8
  store %struct.student* %55, %struct.student** %4, align 8
  br label %45

56:                                               ; preds = %45
  %57 = load i32, i32* %1, align 4
  ret i32 %57
}

; Function Attrs: nounwind
declare dso_local noalias i8* @malloc(i64) #1

declare dso_local i32 @gets(...) #2

declare dso_local i32 @puts(i8*) #2


!llvm.module.flags = !{!0}
!llvm.ident = !{!1}

!0 = !{i32 1, !"wchar_size", i32 4}
!1 = !{!"clang version 10.0.0-4ubuntu1 "}
